; Function Attrs: mustprogress uwtable
define void @_ZN11WelcomePage16removeRecentPathEv(ptr noundef nonnull align 8 dereferenceable(112) %0) local_unnamed_addr #0 align 2 personality ptr @__gxx_personality_v0 {
  %2 = alloca %class.QString, align 8
  %3 = alloca %class.QVariant, align 8
  %4 = tail call noundef ptr @_ZNK7QObject6senderEv(ptr noundef nonnull align 8 dereferenceable(16) %0)
  %5 = tail call noundef ptr @_ZNK11QMetaObject4castEPK7QObject(ptr noundef nonnull align 8 dereferenceable(56) @_ZN7QAction16staticMetaObjectE, ptr noundef %4)
  %.not = icmp eq ptr %5, null
  br i1 %.not, label %_ZN7QStringD2Ev.exit10, label %6

6:                                                ; preds = %1
  call void @_ZNK7QAction4dataEv(ptr dead_on_unwind nonnull writable sret(%class.QVariant) align 8 %3, ptr noundef nonnull align 8 dereferenceable(16) %5)
  invoke void @_ZNK8QVariant8toStringEv(ptr dead_on_unwind nonnull writable sret(%class.QString) align 8 %2, ptr noundef nonnull align 8 dereferenceable(32) %3)
          to label %7 unwind label %11

7:                                                ; preds = %6
  call void @_ZN8QVariantD1Ev(ptr noundef nonnull align 8 dereferenceable(32) %3) #18
  %8 = getelementptr inbounds i8, ptr %2, i64 16
  %9 = load i64, ptr %8, align 8
  %10 = icmp eq i64 %9, 0
  br i1 %10, label %21, label %19

11:                                               ; preds = %6
  %12 = landingpad { ptr, i32 }
          cleanup
  call void @_ZN8QVariantD1Ev(ptr noundef nonnull align 8 dereferenceable(32) %3) #18
  br label %_ZN7QStringD2Ev.exit

13:                                               ; preds = %19
  %14 = landingpad { ptr, i32 }
          cleanup
  %15 = load ptr, ptr %2, align 8
  %.not.i.i.i = icmp eq ptr %15, null
  br i1 %.not.i.i.i, label %_ZN7QStringD2Ev.exit, label %_ZN17QArrayDataPointerIDsE5derefEv.exit.i.i

_ZN17QArrayDataPointerIDsE5derefEv.exit.i.i:      ; preds = %13
  %16 = atomicrmw sub ptr %15, i32 1 seq_cst, align 4
  %.not.i.i = icmp eq i32 %16, 1
  br i1 %.not.i.i, label %17, label %_ZN7QStringD2Ev.exit

17:                                               ; preds = %_ZN17QArrayDataPointerIDsE5derefEv.exit.i.i
  %18 = load ptr, ptr %2, align 8
  call void @_ZN10QArrayData10deallocateEPS_xx(ptr noundef %18, i64 noundef 2, i64 noundef 8) #18
  br label %_ZN7QStringD2Ev.exit

19:                                               ; preds = %7
  %20 = load ptr, ptr @mainApp, align 8
  invoke void @_ZN15MainApplication16removeRecentItemERK7QString(ptr noundef nonnull align 8 dereferenceable(216) %20, ptr noundef nonnull align 8 dereferenceable(24) %2)
          to label %21 unwind label %13

21:                                               ; preds = %19, %7
  %22 = load ptr, ptr %2, align 8
  %.not.i.i.i7 = icmp eq ptr %22, null
  br i1 %.not.i.i.i7, label %_ZN7QStringD2Ev.exit10, label %_ZN17QArrayDataPointerIDsE5derefEv.exit.i.i8

_ZN17QArrayDataPointerIDsE5derefEv.exit.i.i8:     ; preds = %21
  %23 = atomicrmw sub ptr %22, i32 1 seq_cst, align 4
  %.not.i.i9 = icmp eq i32 %23, 1
  br i1 %.not.i.i9, label %24, label %_ZN7QStringD2Ev.exit10

24:                                               ; preds = %_ZN17QArrayDataPointerIDsE5derefEv.exit.i.i8
  %25 = load ptr, ptr %2, align 8
  call void @_ZN10QArrayData10deallocateEPS_xx(ptr noundef %25, i64 noundef 2, i64 noundef 8) #18
  br label %_ZN7QStringD2Ev.exit10

_ZN7QStringD2Ev.exit10:                           ; preds = %24, %_ZN17QArrayDataPointerIDsE5derefEv.exit.i.i8, %21, %1
  ret void

_ZN7QStringD2Ev.exit:                             ; preds = %17, %_ZN17QArrayDataPointerIDsE5derefEv.exit.i.i, %13, %11
  %.pn = phi { ptr, i32 } [ %12, %11 ], [ %14, %13 ], [ %14, %_ZN17QArrayDataPointerIDsE5derefEv.exit.i.i ], [ %14, %17 ]
  resume { ptr, i32 } %.pn
}